target datalayout = "e-m:e-p270:32:32-p271:32:32-p272:64:64-i64:64-i128:128-f80:128-n8:16:32:64-S128"
target triple = "x86_64-unknown-linux-gnu"

%class.report_verbose_tactic = type <{ %class.skip_tactic.base, [4 x i8], ptr, i32, [4 x i8] }>
%class.skip_tactic.base = type { %class.tactic.base }
%class.tactic.base = type <{ %"class.user_propagator::core", i32 }>
%"class.user_propagator::core" = type { ptr }
%class.tactic = type <{ %"class.user_propagator::core", i32, [4 x i8] }>

; Function Attrs: mustprogress nounwind uwtable
define linkonce_odr hidden void @_ZN15user_propagator4coreC2Ev(ptr noundef nonnull align 8 dereferenceable(8) %this) unnamed_addr #5 comdat align 2 {
entry:
  %this.addr = alloca ptr, align 8
  store ptr %this, ptr %this.addr, align 8
  %this1 = load ptr, ptr %this.addr, align 8
  store ptr getelementptr inbounds ({ [14 x ptr] }, ptr @_ZTVN15user_propagator4coreE, i32 0, i32 0, i32 2), ptr %this1, align 8
  ret void
}

; Function Attrs: mustprogress nounwind uwtable
define linkonce_odr hidden void @_ZN6tacticC2Ev(ptr noundef nonnull align 8 dereferenceable(12) %this) unnamed_addr #5 comdat align 2 {
entry:
  %this.addr = alloca ptr, align 8
  store ptr %this, ptr %this.addr, align 8
  %this1 = load ptr, ptr %this.addr, align 8
  call void @_ZN15user_propagator4coreC2Ev(ptr noundef nonnull align 8 dereferenceable(8) %this1) #3
  store ptr getelementptr inbounds ({ [25 x ptr] }, ptr @_ZTV6tactic, i32 0, i32 0, i32 2), ptr %this1, align 8
  %m_ref_count = getelementptr inbounds %class.tactic, ptr %this1, i32 0, i32 1
  store i32 0, ptr %m_ref_count, align 8
  ret void
}

; Function Attrs: mustprogress uwtable
define linkonce_odr hidden void @_ZN11skip_tacticC2Ev(ptr noundef nonnull align 8 dereferenceable(12) %this) unnamed_addr #4 comdat align 2 {
entry:
  %this.addr = alloca ptr, align 8
  store ptr %this, ptr %this.addr, align 8
  %this1 = load ptr, ptr %this.addr, align 8
  call void @_ZN6tacticC2Ev(ptr noundef nonnull align 8 dereferenceable(12) %this1)
  store ptr getelementptr inbounds ({ [25 x ptr] }, ptr @_ZTV11skip_tactic, i32 0, i32 0, i32 2), ptr %this1, align 8
  ret void
}

; Function Attrs: mustprogress uwtable
define linkonce_odr hidden void @_ZN21report_verbose_tacticC2EPKcj(ptr noundef nonnull align 8 dereferenceable(28) %this, ptr noundef %msg, i32 noundef %lvl) unnamed_addr #4 comdat align 2 {
entry:
  %this.addr = alloca ptr, align 8
  %msg.addr = alloca ptr, align 8
  %lvl.addr = alloca i32, align 4
  store ptr %this, ptr %this.addr, align 8
  store ptr %msg, ptr %msg.addr, align 8
  store i32 %lvl, ptr %lvl.addr, align 4
  %this1 = load ptr, ptr %this.addr, align 8
  call void @_ZN11skip_tacticC2Ev(ptr noundef nonnull align 8 dereferenceable(12) %this1)
  store ptr getelementptr inbounds ({ [25 x ptr] }, ptr @_ZTV21report_verbose_tactic, i32 0, i32 0, i32 2), ptr %this1, align 8
  %m_msg = getelementptr inbounds %class.report_verbose_tactic, ptr %this1, i32 0, i32 2
  %0 = load ptr, ptr %msg.addr, align 8
  store ptr %0, ptr %m_msg, align 8
  %m_lvl = getelementptr inbounds %class.report_verbose_tactic, ptr %this1, i32 0, i32 3
  %1 = load i32, ptr %lvl.addr, align 4
  store i32 %1, ptr %m_lvl, align 8
  ret void
}

; Function Attrs: mustprogress uwtable
define hidden noundef ptr @_Z24mk_report_verbose_tacticPKcj(ptr noundef %msg, i32 noundef %lvl) #4 {
entry:
  %msg.addr = alloca ptr, align 8
  %lvl.addr = alloca i32, align 4
  store ptr %msg, ptr %msg.addr, align 8
  store i32 %lvl, ptr %lvl.addr, align 4
  %call = call noalias noundef ptr @_ZN6memory8allocateEm(i64 noundef 32)
  %0 = load ptr, ptr %msg.addr, align 8
  %1 = load i32, ptr %lvl.addr, align 4
  call void @_ZN21report_verbose_tacticC2EPKcj(ptr noundef nonnull align 8 dereferenceable(28) %call, ptr noundef %0, i32 noundef %1)
  ret ptr %call
}