; Function Attrs: mustprogress uwtable
define hidden noalias noundef ptr @_Z24mk_report_verbose_tacticPKcj(ptr noundef %msg, i32 noundef %lvl) local_unnamed_addr #3 {
entry:
  %call = tail call noalias noundef ptr @_ZN6memory8allocateEm(i64 noundef 32)
  %m_ref_count.i.i.i = getelementptr inbounds i8, ptr %call, i64 8
  store i32 0, ptr %m_ref_count.i.i.i, align 8
  store ptr getelementptr inbounds ({ [25 x ptr] }, ptr @_ZTV21report_verbose_tactic, i64 0, i32 0, i64 2), ptr %call, align 8
  %m_msg.i = getelementptr inbounds i8, ptr %call, i64 16
  store ptr %msg, ptr %m_msg.i, align 8
  %m_lvl.i = getelementptr inbounds i8, ptr %call, i64 24
  store i32 %lvl, ptr %m_lvl.i, align 8
  ret ptr %call
}